; Function Attrs: mustprogress nofree norecurse nosync nounwind willreturn memory(read, argmem: readwrite, inaccessiblemem: none) uwtable
define hidden void @_ZN12GraphBuilder9ScopeData9set_scopeEP7IRScope(ptr nocapture noundef nonnull align 8 dereferenceable(137) %0, ptr noundef %1) local_unnamed_addr #4 align 2 {
  %3 = getelementptr inbounds i8, ptr %0, i64 16
  store ptr %1, ptr %3, align 8
  %4 = load ptr, ptr %0, align 8
  %.not = icmp eq ptr %4, null
  br i1 %.not, label %.critedge, label %5

5:                                                ; preds = %2
  %6 = getelementptr inbounds i8, ptr %4, i64 24
  %7 = load i8, ptr %6, align 8
  %8 = trunc i8 %7 to i1
  br i1 %8, label %14, label %.critedge

.critedge:                                        ; preds = %2, %5
  %9 = getelementptr inbounds i8, ptr %1, i64 56
  %10 = load ptr, ptr %9, align 8
  %11 = load i32, ptr %10, align 4
  %12 = icmp sgt i32 %11, 0
  %13 = zext i1 %12 to i8
  br label %14

14:                                               ; preds = %.critedge, %5
  %15 = phi i8 [ 1, %5 ], [ %13, %.critedge ]
  %16 = getelementptr inbounds i8, ptr %0, i64 24
  store i8 %15, ptr %16, align 8
  ret void
}